CCS PCM C Compiler, Version 5.015, 5967               01-out-22 20:27

               Filename:   C:\Users\Sadla\OneDrive\Documentos\MEGAsync\doc\Facul\Microcontroladores\Projetos\11ExtInterruptB0\main.lst

               ROM used:   90 words (1%)
                           Largest free fragment is 2048
               RAM used:   13 (4%) at main() level
                           13 (4%) worst case
               Stack used: 1 locations (0 in main + 1 for interrupts)
               Stack size: 8

*
0000:  MOVLW  00
0001:  MOVWF  0A
0002:  GOTO   03B
0003:  NOP
0004:  MOVWF  7F
0005:  SWAPF  03,W
0006:  CLRF   03
0007:  MOVWF  21
0008:  MOVF   0A,W
0009:  MOVWF  20
000A:  CLRF   0A
000B:  MOVF   04,W
000C:  MOVWF  22
000D:  MOVF   77,W
000E:  MOVWF  23
000F:  MOVF   78,W
0010:  MOVWF  24
0011:  MOVF   79,W
0012:  MOVWF  25
0013:  MOVF   7A,W
0014:  MOVWF  26
0015:  BCF    03.7
0016:  BCF    03.5
0017:  BTFSS  0B.4
0018:  GOTO   01B
0019:  BTFSC  0B.1
001A:  GOTO   02C
001B:  MOVF   22,W
001C:  MOVWF  04
001D:  MOVF   23,W
001E:  MOVWF  77
001F:  MOVF   24,W
0020:  MOVWF  78
0021:  MOVF   25,W
0022:  MOVWF  79
0023:  MOVF   26,W
0024:  MOVWF  7A
0025:  MOVF   20,W
0026:  MOVWF  0A
0027:  SWAPF  21,W
0028:  MOVWF  03
0029:  SWAPF  7F,F
002A:  SWAPF  7F,W
002B:  RETFIE
002C:  BCF    0A.3
002D:  BCF    0A.4
002E:  GOTO   02F
.................... //#include <main.h> 
....................  
.................... #include <16F877A.h> 
.................... //////////// Standard Header file for the PIC16F877A device //////////////// 
.................... /////////////////////////////////////////////////////////////////////////// 
.................... ////        (C) Copyright 1996, 2013 Custom Computer Services          //// 
.................... //// This source code may only be used by licensed users of the CCS C  //// 
.................... //// compiler.  This source code may only be distributed to other      //// 
.................... //// licensed users of the CCS C compiler.  No other use, reproduction //// 
.................... //// or distribution is permitted without written permission.          //// 
.................... //// Derivative programs created using this software in object code    //// 
.................... //// form are not restricted in any way.                               //// 
.................... /////////////////////////////////////////////////////////////////////////// 
.................... #device PIC16F877A 
....................  
.................... #list 
....................  
.................... #device ADC=8 
....................  
.................... #FUSES NOWDT                    //No Watch Dog Timer 
.................... #FUSES NOBROWNOUT               //No brownout reset 
.................... #FUSES NOLVP                    //No low voltage prgming, B3(PIC16) or B5(PIC18) used for I/O 
....................  
.................... #use delay(crystal=20000000) 
....................  
....................  
.................... #INT_EXT 
.................... void  EXT_isr(void)  
.................... { 
....................    clear_interrupt(INT_EXT); 
002F:  BCF    0B.1
....................    output_toggle(PIN_C4); 
0030:  BCF    27.4
0031:  MOVF   27,W
0032:  BSF    03.5
0033:  MOVWF  07
0034:  MOVLW  10
0035:  BCF    03.5
0036:  XORWF  07,F
0037:  BCF    0B.1
0038:  BCF    0A.3
0039:  BCF    0A.4
003A:  GOTO   01B
.................... } 
....................  
.................... void main() 
003B:  MOVF   03,W
003C:  ANDLW  1F
003D:  MOVWF  03
003E:  MOVLW  FF
003F:  MOVWF  27
0040:  BSF    03.5
0041:  BSF    1F.0
0042:  BSF    1F.1
0043:  BSF    1F.2
0044:  BCF    1F.3
0045:  MOVLW  07
0046:  MOVWF  1C
0047:  BCF    03.7
.................... { 
....................    set_tris_b(0x01); 
0048:  MOVLW  01
0049:  MOVWF  06
....................    //set_tris_d(0x00); 
....................    //set_tris_C(0xFF); 
....................    output_low(PIN_D1); 
004A:  BCF    08.1
004B:  BCF    03.5
004C:  BCF    08.1
....................    output_low(PIN_D2); 
004D:  BSF    03.5
004E:  BCF    08.2
004F:  BCF    03.5
0050:  BCF    08.2
....................     
....................    ext_int_edge(H_TO_L); 
0051:  BSF    03.5
0052:  BCF    01.6
....................    clear_interrupt(INT_EXT); 
0053:  BCF    03.5
0054:  BCF    0B.1
....................    enable_interrupts(INT_EXT); 
0055:  BSF    0B.4
....................    enable_interrupts(GLOBAL); 
0056:  MOVLW  C0
0057:  IORWF  0B,F
....................  
....................    while(TRUE) 
....................    { 
0058:  GOTO   058
....................       //TODO: User Code 
....................    } 
....................  
.................... } 
0059:  SLEEP

Configuration Fuses:
   Word  1: 3F32   HS NOWDT PUT NOBROWNOUT NOLVP NOCPD NOWRT NODEBUG NOPROTECT
